; Function Attrs: nofree norecurse nosync nounwind memory(argmem: readwrite) uwtable
define hidden void @VP8LConvertBGRAToRGB_C(ptr noalias noundef readonly captures(address) %0, i32 noundef %1, ptr noalias noundef writeonly captures(none) %2) #2 {
  %4 = sext i32 %1 to i64
  %5 = getelementptr inbounds i32, ptr %0, i64 %4
  %6 = icmp sgt i32 %1, 0
  br i1 %6, label %.lr.ph, label %._crit_edge

.lr.ph:                                           ; preds = %3, %.lr.ph
  %.012 = phi ptr [ %7, %.lr.ph ], [ %0, %3 ]
  %.01011 = phi ptr [ %16, %.lr.ph ], [ %2, %3 ]
  %7 = getelementptr inbounds nuw i8, ptr %.012, i64 4
  %8 = load i32, ptr %.012, align 4, !tbaa !3
  %9 = lshr i32 %8, 16
  %10 = trunc i32 %9 to i8
  %11 = getelementptr inbounds nuw i8, ptr %.01011, i64 1
  store i8 %10, ptr %.01011, align 1, !tbaa !20
  %12 = lshr i32 %8, 8
  %13 = trunc i32 %12 to i8
  %14 = getelementptr inbounds nuw i8, ptr %.01011, i64 2
  store i8 %13, ptr %11, align 1, !tbaa !20
  %15 = trunc i32 %8 to i8
  %16 = getelementptr inbounds nuw i8, ptr %.01011, i64 3
  store i8 %15, ptr %14, align 1, !tbaa !20
  %17 = icmp ult ptr %7, %5
  br i1 %17, label %.lr.ph, label %._crit_edge, !llvm.loop !42

._crit_edge:                                      ; preds = %.lr.ph, %3
  ret void
}